(lp1
(lp2
I73
aI0
aI0
aI0
aa(lp3
I66
aI0
aI0
aI0
aa(lp4
I71
aI0
aI0
aI0
aa(lp5
I72
aI0
aI0
aI0
aa(lp6
I64
aI0
aI0
aI0
aa(lp7
I61
aI0
aI0
aI0
aa(lp8
I63
aI0
aI0
aI0
aa(lp9
I89
aI0
aI0
aI0
aa(lp10
I70
aI0
aI0
aI0
aa(lp11
I28
aI0
aI0
aI0
aa(lp12
I61
aI0
aI0
aI0
aa.