(lp1
(lp2
I54
aI0
aI0
aI0
aa(lp3
I62
aI0
aI0
aI0
aa(lp4
I43
aI0
aI0
aI0
aa(lp5
I77
aI0
aI0
aI0
aa(lp6
I59
aI0
aI0
aI0
aa(lp7
I66
aI0
aI0
aI0
aa(lp8
I74
aI0
aI0
aI0
aa(lp9
I49
aI0
aI0
aI0
aa(lp10
I74
aI0
aI0
aI0
aa(lp11
I78
aI0
aI0
aI0
aa(lp12
I62
aI0
aI0
aI0
aa.